; Function Attrs: mustprogress uwtable
define hidden noundef range(i32 -100, 1) i32 @_ZNK4ncnn14Dequantize_x867forwardERKNS_3MatERS1_RKNS_6OptionE(ptr noundef nonnull align 8 dereferenceable(360) %0, ptr noundef nonnull align 8 dereferenceable(72) %1, ptr noundef nonnull align 8 dereferenceable(72) %2, ptr noundef nonnull readonly align 8 captures(none) dereferenceable(64) %3) unnamed_addr #2 align 2 {
  %5 = alloca i32, align 4
  %6 = alloca i32, align 4
  %7 = alloca i32, align 4
  %8 = alloca i32, align 4
  %9 = alloca i32, align 4
  %10 = alloca i32, align 4
  %11 = tail call i32 @__kmpc_global_thread_num(ptr nonnull @2)
  %12 = getelementptr inbounds nuw i8, ptr %1, i64 40
  %13 = load i32, ptr %12, align 8, !tbaa !18
  call void @llvm.lifetime.start.p0(i64 4, ptr nonnull %5) #5
  %14 = getelementptr inbounds nuw i8, ptr %1, i64 44
  %15 = load i32, ptr %14, align 4, !tbaa !19
  store i32 %15, ptr %5, align 4, !tbaa !20
  call void @llvm.lifetime.start.p0(i64 4, ptr nonnull %6) #5
  %16 = getelementptr inbounds nuw i8, ptr %1, i64 48
  %17 = load i32, ptr %16, align 8, !tbaa !21
  store i32 %17, ptr %6, align 4, !tbaa !20
  call void @llvm.lifetime.start.p0(i64 4, ptr nonnull %7) #5
  %18 = getelementptr inbounds nuw i8, ptr %1, i64 56
  %19 = load i32, ptr %18, align 8, !tbaa !22
  store i32 %19, ptr %7, align 4, !tbaa !20
  call void @llvm.lifetime.start.p0(i64 4, ptr nonnull %8) #5
  %20 = getelementptr inbounds nuw i8, ptr %1, i64 24
  %21 = load i32, ptr %20, align 8, !tbaa !23
  store i32 %21, ptr %8, align 4, !tbaa !20
  %22 = getelementptr inbounds nuw i8, ptr %3, i64 8
  %23 = load ptr, ptr %22, align 8, !tbaa !24
  tail call void @_ZN4ncnn3Mat11create_likeERKS0_PNS_9AllocatorE(ptr noundef nonnull align 8 dereferenceable(72) %2, ptr noundef nonnull align 8 dereferenceable(72) %1, ptr noundef %23)
  %24 = load ptr, ptr %2, align 8, !tbaa !16
  %25 = icmp eq ptr %24, null
  br i1 %25, label %_ZNK4ncnn3Mat5emptyEv.exit.thread, label %_ZNK4ncnn3Mat5emptyEv.exit

_ZNK4ncnn3Mat5emptyEv.exit:                       ; preds = %4
  %26 = getelementptr inbounds nuw i8, ptr %2, i64 64
  %27 = load i64, ptr %26, align 8, !tbaa !17
  %28 = getelementptr inbounds nuw i8, ptr %2, i64 56
  %29 = load i32, ptr %28, align 8, !tbaa !22
  %30 = sext i32 %29 to i64
  %31 = mul i64 %27, %30
  %32 = icmp eq i64 %31, 0
  br i1 %32, label %_ZNK4ncnn3Mat5emptyEv.exit.thread, label %33

33:                                               ; preds = %_ZNK4ncnn3Mat5emptyEv.exit
  switch i32 %13, label %_ZNK4ncnn3Mat5emptyEv.exit.thread [
    i32 1, label %34
    i32 2, label %41
    i32 3, label %44
  ]

34:                                               ; preds = %33
  call void @llvm.lifetime.start.p0(i64 4, ptr nonnull %9) #5
  %35 = getelementptr inbounds nuw i8, ptr %3, i64 4
  %36 = load i32, ptr %35, align 4, !tbaa !27
  %37 = sdiv i32 %15, %36
  %.sroa.speculated = tail call i32 @llvm.smax.i32(i32 %37, i32 1)
  store i32 %.sroa.speculated, ptr %9, align 4, !tbaa !20
  call void @llvm.lifetime.start.p0(i64 4, ptr nonnull %10) #5
  %38 = add i32 %15, -1
  %39 = add i32 %38, %.sroa.speculated
  %40 = sdiv i32 %39, %.sroa.speculated
  store i32 %40, ptr %10, align 4, !tbaa !20
  tail call void @__kmpc_push_num_threads(ptr nonnull @2, i32 %11, i32 %36)
  call void (ptr, i32, ptr, ...) @__kmpc_fork_call(ptr nonnull @2, i32 7, ptr nonnull @_ZNK4ncnn14Dequantize_x867forwardERKNS_3MatERS1_RKNS_6OptionE.omp_outlined, ptr nonnull %10, ptr nonnull %9, ptr nonnull %1, ptr nonnull %8, ptr nonnull %2, ptr nonnull %5, ptr nonnull %0)
  call void @llvm.lifetime.end.p0(i64 4, ptr nonnull %10) #5
  call void @llvm.lifetime.end.p0(i64 4, ptr nonnull %9) #5
  br label %_ZNK4ncnn3Mat5emptyEv.exit.thread

41:                                               ; preds = %33
  %42 = getelementptr inbounds nuw i8, ptr %3, i64 4
  %43 = load i32, ptr %42, align 4, !tbaa !27
  tail call void @__kmpc_push_num_threads(ptr nonnull @2, i32 %11, i32 %43)
  call void (ptr, i32, ptr, ...) @__kmpc_fork_call(ptr nonnull @2, i32 6, ptr nonnull @_ZNK4ncnn14Dequantize_x867forwardERKNS_3MatERS1_RKNS_6OptionE.omp_outlined.1, ptr nonnull %6, ptr nonnull %1, ptr nonnull %2, ptr nonnull %0, ptr nonnull %8, ptr nonnull %5)
  br label %_ZNK4ncnn3Mat5emptyEv.exit.thread

44:                                               ; preds = %33
  %45 = getelementptr inbounds nuw i8, ptr %3, i64 4
  %46 = load i32, ptr %45, align 4, !tbaa !27
  tail call void @__kmpc_push_num_threads(ptr nonnull @2, i32 %11, i32 %46)
  call void (ptr, i32, ptr, ...) @__kmpc_fork_call(ptr nonnull @2, i32 7, ptr nonnull @_ZNK4ncnn14Dequantize_x867forwardERKNS_3MatERS1_RKNS_6OptionE.omp_outlined.2, ptr nonnull %7, ptr nonnull %1, ptr nonnull %2, ptr nonnull %0, ptr nonnull %8, ptr nonnull %5, ptr nonnull %6)
  br label %_ZNK4ncnn3Mat5emptyEv.exit.thread

_ZNK4ncnn3Mat5emptyEv.exit.thread:                ; preds = %4, %41, %34, %44, %33, %_ZNK4ncnn3Mat5emptyEv.exit
  %.0 = phi i32 [ -100, %_ZNK4ncnn3Mat5emptyEv.exit ], [ 0, %33 ], [ 0, %34 ], [ 0, %44 ], [ 0, %41 ], [ -100, %4 ]
  call void @llvm.lifetime.end.p0(i64 4, ptr nonnull %8) #5
  call void @llvm.lifetime.end.p0(i64 4, ptr nonnull %7) #5
  call void @llvm.lifetime.end.p0(i64 4, ptr nonnull %6) #5
  call void @llvm.lifetime.end.p0(i64 4, ptr nonnull %5) #5
  ret i32 %.0
}